target datalayout = "e-m:e-p270:32:32-p271:32:32-p272:64:64-i64:64-i128:128-f80:128-n8:16:32:64-S128"
target triple = "x86_64-pc-linux-gnu"

%"class.pxrInternal_v0_24__pxrReserved__::GfRange2f" = type { %"class.pxrInternal_v0_24__pxrReserved__::GfVec2f", %"class.pxrInternal_v0_24__pxrReserved__::GfVec2f" }
%"class.pxrInternal_v0_24__pxrReserved__::GfVec2f" = type { [2 x float] }

; Function Attrs: mustprogress nounwind uwtable
define linkonce_odr noundef double @_ZN32pxrInternal_v0_24__pxrReserved__5GfSqrIfEEdRKT_(ptr noundef nonnull align 4 dereferenceable(4) %0) #2 comdat {
  %2 = alloca ptr, align 8
  store ptr %0, ptr %2, align 8
  %3 = load ptr, ptr %2, align 8
  %4 = load float, ptr %3, align 4
  %5 = load ptr, ptr %2, align 8
  %6 = load float, ptr %5, align 4
  %7 = fmul float %4, %6
  %8 = fpext float %7 to double
  ret double %8
}

; Function Attrs: mustprogress nounwind uwtable
define linkonce_odr noundef nonnull align 4 dereferenceable(4) ptr @_ZNK32pxrInternal_v0_24__pxrReserved__7GfVec2fixEm(ptr noundef nonnull align 4 dereferenceable(8) %0, i64 noundef %1) #2 comdat align 2 {
  %3 = alloca ptr, align 8
  %4 = alloca i64, align 8
  store ptr %0, ptr %3, align 8
  store i64 %1, ptr %4, align 8
  %5 = load ptr, ptr %3, align 8
  %6 = getelementptr inbounds nuw %"class.pxrInternal_v0_24__pxrReserved__::GfVec2f", ptr %5, i32 0, i32 0
  %7 = load i64, ptr %4, align 8
  %8 = getelementptr inbounds [2 x float], ptr %6, i64 0, i64 %7
  ret ptr %8
}

; Function Attrs: mustprogress uwtable
define noundef double @_ZNK32pxrInternal_v0_24__pxrReserved__9GfRange2f18GetDistanceSquaredERKNS_7GfVec2fE(ptr noundef nonnull align 4 dereferenceable(16) %0, ptr noundef nonnull align 4 dereferenceable(8) %1) #0 align 2 {
  %3 = alloca ptr, align 8
  %4 = alloca ptr, align 8
  %5 = alloca double, align 8
  %6 = alloca float, align 4
  %7 = alloca float, align 4
  %8 = alloca float, align 4
  %9 = alloca float, align 4
  store ptr %0, ptr %3, align 8
  store ptr %1, ptr %4, align 8
  %10 = load ptr, ptr %3, align 8
  store double 0.000000e+00, ptr %5, align 8
  %11 = load ptr, ptr %4, align 8
  %12 = call noundef nonnull align 4 dereferenceable(4) ptr @_ZNK32pxrInternal_v0_24__pxrReserved__7GfVec2fixEm(ptr noundef nonnull align 4 dereferenceable(8) %11, i64 noundef 0)
  %13 = load float, ptr %12, align 4
  %14 = getelementptr inbounds nuw %"class.pxrInternal_v0_24__pxrReserved__::GfRange2f", ptr %10, i32 0, i32 0
  %15 = call noundef nonnull align 4 dereferenceable(4) ptr @_ZNK32pxrInternal_v0_24__pxrReserved__7GfVec2fixEm(ptr noundef nonnull align 4 dereferenceable(8) %14, i64 noundef 0)
  %16 = load float, ptr %15, align 4
  %17 = fcmp olt float %13, %16
  br i1 %17, label %18, label %29

18:                                               ; preds = %2
  %19 = getelementptr inbounds nuw %"class.pxrInternal_v0_24__pxrReserved__::GfRange2f", ptr %10, i32 0, i32 0
  %20 = call noundef nonnull align 4 dereferenceable(4) ptr @_ZNK32pxrInternal_v0_24__pxrReserved__7GfVec2fixEm(ptr noundef nonnull align 4 dereferenceable(8) %19, i64 noundef 0)
  %21 = load float, ptr %20, align 4
  %22 = load ptr, ptr %4, align 8
  %23 = call noundef nonnull align 4 dereferenceable(4) ptr @_ZNK32pxrInternal_v0_24__pxrReserved__7GfVec2fixEm(ptr noundef nonnull align 4 dereferenceable(8) %22, i64 noundef 0)
  %24 = load float, ptr %23, align 4
  %25 = fsub float %21, %24
  store float %25, ptr %6, align 4
  %26 = call noundef double @_ZN32pxrInternal_v0_24__pxrReserved__5GfSqrIfEEdRKT_(ptr noundef nonnull align 4 dereferenceable(4) %6)
  %27 = load double, ptr %5, align 8
  %28 = fadd double %27, %26
  store double %28, ptr %5, align 8
  br label %49

29:                                               ; preds = %2
  %30 = load ptr, ptr %4, align 8
  %31 = call noundef nonnull align 4 dereferenceable(4) ptr @_ZNK32pxrInternal_v0_24__pxrReserved__7GfVec2fixEm(ptr noundef nonnull align 4 dereferenceable(8) %30, i64 noundef 0)
  %32 = load float, ptr %31, align 4
  %33 = getelementptr inbounds nuw %"class.pxrInternal_v0_24__pxrReserved__::GfRange2f", ptr %10, i32 0, i32 1
  %34 = call noundef nonnull align 4 dereferenceable(4) ptr @_ZNK32pxrInternal_v0_24__pxrReserved__7GfVec2fixEm(ptr noundef nonnull align 4 dereferenceable(8) %33, i64 noundef 0)
  %35 = load float, ptr %34, align 4
  %36 = fcmp ogt float %32, %35
  br i1 %36, label %37, label %48

37:                                               ; preds = %29
  %38 = load ptr, ptr %4, align 8
  %39 = call noundef nonnull align 4 dereferenceable(4) ptr @_ZNK32pxrInternal_v0_24__pxrReserved__7GfVec2fixEm(ptr noundef nonnull align 4 dereferenceable(8) %38, i64 noundef 0)
  %40 = load float, ptr %39, align 4
  %41 = getelementptr inbounds nuw %"class.pxrInternal_v0_24__pxrReserved__::GfRange2f", ptr %10, i32 0, i32 1
  %42 = call noundef nonnull align 4 dereferenceable(4) ptr @_ZNK32pxrInternal_v0_24__pxrReserved__7GfVec2fixEm(ptr noundef nonnull align 4 dereferenceable(8) %41, i64 noundef 0)
  %43 = load float, ptr %42, align 4
  %44 = fsub float %40, %43
  store float %44, ptr %7, align 4
  %45 = call noundef double @_ZN32pxrInternal_v0_24__pxrReserved__5GfSqrIfEEdRKT_(ptr noundef nonnull align 4 dereferenceable(4) %7)
  %46 = load double, ptr %5, align 8
  %47 = fadd double %46, %45
  store double %47, ptr %5, align 8
  br label %48

48:                                               ; preds = %37, %29
  br label %49

49:                                               ; preds = %48, %18
  %50 = load ptr, ptr %4, align 8
  %51 = call noundef nonnull align 4 dereferenceable(4) ptr @_ZNK32pxrInternal_v0_24__pxrReserved__7GfVec2fixEm(ptr noundef nonnull align 4 dereferenceable(8) %50, i64 noundef 1)
  %52 = load float, ptr %51, align 4
  %53 = getelementptr inbounds nuw %"class.pxrInternal_v0_24__pxrReserved__::GfRange2f", ptr %10, i32 0, i32 0
  %54 = call noundef nonnull align 4 dereferenceable(4) ptr @_ZNK32pxrInternal_v0_24__pxrReserved__7GfVec2fixEm(ptr noundef nonnull align 4 dereferenceable(8) %53, i64 noundef 1)
  %55 = load float, ptr %54, align 4
  %56 = fcmp olt float %52, %55
  br i1 %56, label %57, label %68

57:                                               ; preds = %49
  %58 = getelementptr inbounds nuw %"class.pxrInternal_v0_24__pxrReserved__::GfRange2f", ptr %10, i32 0, i32 0
  %59 = call noundef nonnull align 4 dereferenceable(4) ptr @_ZNK32pxrInternal_v0_24__pxrReserved__7GfVec2fixEm(ptr noundef nonnull align 4 dereferenceable(8) %58, i64 noundef 1)
  %60 = load float, ptr %59, align 4
  %61 = load ptr, ptr %4, align 8
  %62 = call noundef nonnull align 4 dereferenceable(4) ptr @_ZNK32pxrInternal_v0_24__pxrReserved__7GfVec2fixEm(ptr noundef nonnull align 4 dereferenceable(8) %61, i64 noundef 1)
  %63 = load float, ptr %62, align 4
  %64 = fsub float %60, %63
  store float %64, ptr %8, align 4
  %65 = call noundef double @_ZN32pxrInternal_v0_24__pxrReserved__5GfSqrIfEEdRKT_(ptr noundef nonnull align 4 dereferenceable(4) %8)
  %66 = load double, ptr %5, align 8
  %67 = fadd double %66, %65
  store double %67, ptr %5, align 8
  br label %88

68:                                               ; preds = %49
  %69 = load ptr, ptr %4, align 8
  %70 = call noundef nonnull align 4 dereferenceable(4) ptr @_ZNK32pxrInternal_v0_24__pxrReserved__7GfVec2fixEm(ptr noundef nonnull align 4 dereferenceable(8) %69, i64 noundef 1)
  %71 = load float, ptr %70, align 4
  %72 = getelementptr inbounds nuw %"class.pxrInternal_v0_24__pxrReserved__::GfRange2f", ptr %10, i32 0, i32 1
  %73 = call noundef nonnull align 4 dereferenceable(4) ptr @_ZNK32pxrInternal_v0_24__pxrReserved__7GfVec2fixEm(ptr noundef nonnull align 4 dereferenceable(8) %72, i64 noundef 1)
  %74 = load float, ptr %73, align 4
  %75 = fcmp ogt float %71, %74
  br i1 %75, label %76, label %87

76:                                               ; preds = %68
  %77 = load ptr, ptr %4, align 8
  %78 = call noundef nonnull align 4 dereferenceable(4) ptr @_ZNK32pxrInternal_v0_24__pxrReserved__7GfVec2fixEm(ptr noundef nonnull align 4 dereferenceable(8) %77, i64 noundef 1)
  %79 = load float, ptr %78, align 4
  %80 = getelementptr inbounds nuw %"class.pxrInternal_v0_24__pxrReserved__::GfRange2f", ptr %10, i32 0, i32 1
  %81 = call noundef nonnull align 4 dereferenceable(4) ptr @_ZNK32pxrInternal_v0_24__pxrReserved__7GfVec2fixEm(ptr noundef nonnull align 4 dereferenceable(8) %80, i64 noundef 1)
  %82 = load float, ptr %81, align 4
  %83 = fsub float %79, %82
  store float %83, ptr %9, align 4
  %84 = call noundef double @_ZN32pxrInternal_v0_24__pxrReserved__5GfSqrIfEEdRKT_(ptr noundef nonnull align 4 dereferenceable(4) %9)
  %85 = load double, ptr %5, align 8
  %86 = fadd double %85, %84
  store double %86, ptr %5, align 8
  br label %87

87:                                               ; preds = %76, %68
  br label %88

88:                                               ; preds = %87, %57
  %89 = load double, ptr %5, align 8
  ret double %89
}